; Function Attrs: mustprogress nofree norecurse nosync nounwind willreturn memory(argmem: write) uwtable
define internal range(i32 -1, 34) i32 @attlist3(ptr noundef writeonly captures(none) %0, i32 noundef %1, ptr readnone captures(none) %2, ptr readnone captures(none) %3, ptr readnone captures(none) %4) #0 {
  switch i32 %1, label %6 [
    i32 15, label %7
    i32 19, label %.sink.split
    i32 18, label %.sink.split
    i32 41, label %.sink.split
  ]

6:                                                ; preds = %5
  br label %.sink.split

.sink.split:                                      ; preds = %5, %5, %5, %6
  %error.sink = phi ptr [ @error, %6 ], [ @attlist4, %5 ], [ @attlist4, %5 ], [ @attlist4, %5 ]
  %.0.ph = phi i32 [ -1, %6 ], [ 31, %5 ], [ 31, %5 ], [ 31, %5 ]
  store ptr %error.sink, ptr %0, align 8, !tbaa !4
  br label %7

7:                                                ; preds = %.sink.split, %5
  %.0 = phi i32 [ 33, %5 ], [ %.0.ph, %.sink.split ]
  ret i32 %.0
}